target datalayout = "e-m:e-p270:32:32-p271:32:32-p272:64:64-i64:64-i128:128-f80:128-n8:16:32:64-S128"
target triple = "x86_64-pc-linux-gnu"

%struct.ec_group_st = type { ptr, ptr, ptr, ptr, i32, i32, i32, i32, ptr, i64, ptr, [6 x i32], ptr, ptr, i32, ptr, ptr, ptr, ptr, i32, %union.anon, ptr, ptr }
%union.anon = type { ptr }

@.str = private unnamed_addr constant [35 x i8] c"../openssl/test/ec_internal_test.c\00", align 1
@.str.86 = private unnamed_addr constant [57 x i8] c"group = EC_GROUP_new_by_curve_name(NID_X9_62_prime256v1)\00", align 1
@.str.87 = private unnamed_addr constant [35 x i8] c"montgomery_correctness_test(group)\00", align 1
@.str.88 = private unnamed_addr constant [4 x i8] c"ctx\00", align 1
@.str.89 = private unnamed_addr constant [55 x i8] c"check_bn_mont_ctx(group->mont_data, group->order, ctx)\00", align 1
@.str.90 = private unnamed_addr constant [18 x i8] c"group order issue\00", align 1
@.str.91 = private unnamed_addr constant [57 x i8] c"check_bn_mont_ctx(group->field_data1, group->field, ctx)\00", align 1

; Function Attrs: nounwind uwtable
define internal i32 @montgomery_correctness_test(ptr noundef %0) #0 {
  %2 = alloca i32, align 4
  %3 = alloca ptr, align 8
  %4 = alloca i32, align 4
  %5 = alloca ptr, align 8
  %6 = alloca i32, align 4
  store ptr %0, ptr %3, align 8, !tbaa !14
  call void @llvm.lifetime.start.p0(i64 4, ptr %4) #4
  store i32 0, ptr %4, align 4, !tbaa !10
  call void @llvm.lifetime.start.p0(i64 8, ptr %5) #4
  store ptr null, ptr %5, align 8, !tbaa !12
  %7 = call ptr @BN_CTX_new()
  store ptr %7, ptr %5, align 8, !tbaa !12
  %8 = load ptr, ptr %5, align 8, !tbaa !12
  %9 = call i32 @test_ptr(ptr noundef @.str, i32 noundef 517, ptr noundef @.str.88, ptr noundef %8)
  %10 = icmp ne i32 %9, 0
  br i1 %10, label %13, label %11

11:                                               ; preds = %1
  %12 = load i32, ptr %4, align 4, !tbaa !10
  store i32 %12, ptr %2, align 4
  store i32 1, ptr %6, align 4
  br label %51

13:                                               ; preds = %1
  %14 = load ptr, ptr %3, align 8, !tbaa !14
  %15 = getelementptr inbounds nuw %struct.ec_group_st, ptr %14, i32 0, i32 18
  %16 = load ptr, ptr %15, align 8, !tbaa !51
  %17 = load ptr, ptr %3, align 8, !tbaa !14
  %18 = getelementptr inbounds nuw %struct.ec_group_st, ptr %17, i32 0, i32 2
  %19 = load ptr, ptr %18, align 8, !tbaa !52
  %20 = load ptr, ptr %5, align 8, !tbaa !12
  %21 = call i32 @check_bn_mont_ctx(ptr noundef %16, ptr noundef %19, ptr noundef %20)
  %22 = icmp ne i32 %21, 0
  %23 = zext i1 %22 to i32
  %24 = call i32 @test_true(ptr noundef @.str, i32 noundef 519, ptr noundef @.str.89, i32 noundef %23)
  %25 = icmp ne i32 %24, 0
  br i1 %25, label %27, label %26

26:                                               ; preds = %13
  call void (ptr, i32, ptr, ...) @test_error(ptr noundef @.str, i32 noundef 520, ptr noundef @.str.90)
  br label %48

27:                                               ; preds = %13
  %28 = load ptr, ptr %3, align 8, !tbaa !14
  %29 = getelementptr inbounds nuw %struct.ec_group_st, ptr %28, i32 0, i32 15
  %30 = load ptr, ptr %29, align 8, !tbaa !53
  %31 = icmp ne ptr %30, null
  br i1 %31, label %32, label %47

32:                                               ; preds = %27
  %33 = load ptr, ptr %3, align 8, !tbaa !14
  %34 = getelementptr inbounds nuw %struct.ec_group_st, ptr %33, i32 0, i32 15
  %35 = load ptr, ptr %34, align 8, !tbaa !53
  %36 = load ptr, ptr %3, align 8, !tbaa !14
  %37 = getelementptr inbounds nuw %struct.ec_group_st, ptr %36, i32 0, i32 10
  %38 = load ptr, ptr %37, align 8, !tbaa !48
  %39 = load ptr, ptr %5, align 8, !tbaa !12
  %40 = call i32 @check_bn_mont_ctx(ptr noundef %35, ptr noundef %38, ptr noundef %39)
  %41 = icmp ne i32 %40, 0
  %42 = zext i1 %41 to i32
  %43 = call i32 @test_true(ptr noundef @.str, i32 noundef 524, ptr noundef @.str.91, i32 noundef %42)
  %44 = icmp ne i32 %43, 0
  br i1 %44, label %46, label %45

45:                                               ; preds = %32
  br label %48

46:                                               ; preds = %32
  br label %47

47:                                               ; preds = %46, %27
  store i32 1, ptr %4, align 4, !tbaa !10
  br label %48

48:                                               ; preds = %47, %45, %26
  %49 = load ptr, ptr %5, align 8, !tbaa !12
  call void @BN_CTX_free(ptr noundef %49)
  %50 = load i32, ptr %4, align 4, !tbaa !10
  store i32 %50, ptr %2, align 4
  store i32 1, ptr %6, align 4
  br label %51

51:                                               ; preds = %48, %11
  call void @llvm.lifetime.end.p0(i64 8, ptr %5) #4
  call void @llvm.lifetime.end.p0(i64 4, ptr %4) #4
  %52 = load i32, ptr %2, align 4
  ret i32 %52
}

; Function Attrs: nounwind uwtable
define internal i32 @named_group_creation_test() #0 {
  %1 = alloca i32, align 4
  %2 = alloca ptr, align 8
  call void @llvm.lifetime.start.p0(i64 4, ptr %1) #4
  store i32 0, ptr %1, align 4, !tbaa !10
  call void @llvm.lifetime.start.p0(i64 8, ptr %2) #4
  store ptr null, ptr %2, align 8, !tbaa !14
  %3 = call ptr @EC_GROUP_new_by_curve_name(i32 noundef 415)
  store ptr %3, ptr %2, align 8, !tbaa !14
  %4 = call i32 @test_ptr(ptr noundef @.str, i32 noundef 538, ptr noundef @.str.86, ptr noundef %3)
  %5 = icmp ne i32 %4, 0
  br i1 %5, label %6, label %13

6:                                                ; preds = %0
  %7 = load ptr, ptr %2, align 8, !tbaa !14
  %8 = call i32 @montgomery_correctness_test(ptr noundef %7)
  %9 = icmp ne i32 %8, 0
  %10 = zext i1 %9 to i32
  %11 = call i32 @test_true(ptr noundef @.str, i32 noundef 539, ptr noundef @.str.87, i32 noundef %10)
  %12 = icmp ne i32 %11, 0
  br i1 %12, label %14, label %13

13:                                               ; preds = %6, %0
  br label %15

14:                                               ; preds = %6
  store i32 1, ptr %1, align 4, !tbaa !10
  br label %15

15:                                               ; preds = %14, %13
  %16 = load ptr, ptr %2, align 8, !tbaa !14
  call void @EC_GROUP_free(ptr noundef %16)
  %17 = load i32, ptr %1, align 4, !tbaa !10
  call void @llvm.lifetime.end.p0(i64 8, ptr %2) #4
  call void @llvm.lifetime.end.p0(i64 4, ptr %1) #4
  ret i32 %17
}