; Function Attrs: nounwind uwtable
define internal range(i32 0, 2) i32 @named_group_creation_test() #0 {
  %1 = tail call ptr @EC_GROUP_new_by_curve_name(i32 noundef 415) #4
  %2 = tail call i32 @test_ptr(ptr noundef nonnull @.str, i32 noundef 538, ptr noundef nonnull @.str.86, ptr noundef %1) #4
  %.not = icmp eq i32 %2, 0
  br i1 %.not, label %25, label %3

3:                                                ; preds = %0
  %4 = tail call ptr @BN_CTX_new() #4
  %5 = tail call i32 @test_ptr(ptr noundef nonnull @.str, i32 noundef 517, ptr noundef nonnull @.str.88, ptr noundef %4) #4
  %.not.i = icmp eq i32 %5, 0
  br i1 %.not.i, label %montgomery_correctness_test.exit, label %6

6:                                                ; preds = %3
  %7 = getelementptr inbounds nuw i8, ptr %1, i64 144
  %8 = load ptr, ptr %7, align 8, !tbaa !30
  %9 = getelementptr inbounds nuw i8, ptr %1, i64 16
  %10 = load ptr, ptr %9, align 8, !tbaa !31
  %11 = tail call fastcc i32 @check_bn_mont_ctx(ptr noundef %8, ptr noundef %10, ptr noundef %4)
  %12 = tail call i32 @test_true(ptr noundef nonnull @.str, i32 noundef 519, ptr noundef nonnull @.str.89, i32 noundef %11) #4
  %.not13.i = icmp eq i32 %12, 0
  br i1 %.not13.i, label %13, label %14

13:                                               ; preds = %6
  tail call void (ptr, i32, ptr, ...) @test_error(ptr noundef nonnull @.str, i32 noundef 520, ptr noundef nonnull @.str.90) #4
  br label %23

14:                                               ; preds = %6
  %15 = getelementptr inbounds nuw i8, ptr %1, i64 120
  %16 = load ptr, ptr %15, align 8, !tbaa !32
  %.not14.i = icmp eq ptr %16, null
  br i1 %.not14.i, label %22, label %17

17:                                               ; preds = %14
  %18 = getelementptr inbounds nuw i8, ptr %1, i64 64
  %19 = load ptr, ptr %18, align 8, !tbaa !33
  %20 = tail call fastcc i32 @check_bn_mont_ctx(ptr noundef nonnull %16, ptr noundef %19, ptr noundef %4)
  %21 = tail call i32 @test_true(ptr noundef nonnull @.str, i32 noundef 524, ptr noundef nonnull @.str.91, i32 noundef %20) #4
  %.not15.i = icmp eq i32 %21, 0
  br i1 %.not15.i, label %23, label %22

22:                                               ; preds = %17, %14
  br label %23

23:                                               ; preds = %22, %17, %13
  %.0.i = phi i32 [ 1, %22 ], [ 0, %17 ], [ 0, %13 ]
  tail call void @BN_CTX_free(ptr noundef %4) #4
  br label %montgomery_correctness_test.exit

montgomery_correctness_test.exit:                 ; preds = %3, %23
  %.011.i = phi i32 [ %.0.i, %23 ], [ 0, %3 ]
  %24 = tail call i32 @test_true(ptr noundef nonnull @.str, i32 noundef 539, ptr noundef nonnull @.str.87, i32 noundef %.011.i) #4
  %.not2 = icmp ne i32 %24, 0
  %spec.select = zext i1 %.not2 to i32
  br label %25

25:                                               ; preds = %montgomery_correctness_test.exit, %0
  %.0 = phi i32 [ 0, %0 ], [ %spec.select, %montgomery_correctness_test.exit ]
  tail call void @EC_GROUP_free(ptr noundef %1) #4
  ret i32 %.0
}